target datalayout = "e-m:e-p270:32:32-p271:32:32-p272:64:64-i64:64-i128:128-f80:128-n8:16:32:64-S128"
target triple = "x86_64-pc-linux-gnu"

%struct.uv_loop_s = type { ptr, i32, [2 x ptr], %union.anon.2, ptr, i32, i64, i32, [2 x ptr], [2 x ptr], ptr, i32, i32, [2 x ptr], %union.pthread_mutex_t, %struct.uv_async_s, %union.pthread_rwlock_t, ptr, [2 x ptr], [2 x ptr], [2 x ptr], [2 x ptr], [2 x ptr], ptr, %struct.uv__io_s, i32, %struct.anon, i64, i64, [2 x i32], %struct.uv__io_s, %struct.uv_signal_s, i32, %struct.uv__io_s, ptr, i32 }
%union.anon.2 = type { ptr }
%union.pthread_mutex_t = type { %struct.__pthread_mutex_s }
%struct.__pthread_mutex_s = type { i32, i32, i32, i32, i32, i16, i16, %struct.__pthread_internal_list }
%struct.__pthread_internal_list = type { ptr, ptr }
%struct.uv_async_s = type { ptr, ptr, i32, ptr, [2 x ptr], %union.anon.3, ptr, i32, ptr, [2 x ptr], i32 }
%union.anon.3 = type { [4 x ptr] }
%union.pthread_rwlock_t = type { %struct.__pthread_rwlock_arch_t }
%struct.__pthread_rwlock_arch_t = type { i32, i32, i32, i32, i32, i32, i32, i32, i8, [7 x i8], i64, i32 }
%struct.anon = type { ptr, i32 }
%struct.uv_signal_s = type { ptr, ptr, i32, ptr, [2 x ptr], %union.anon.4, ptr, i32, ptr, i32, %struct.anon.5, i32, i32 }
%union.anon.4 = type { [4 x ptr] }
%struct.anon.5 = type { ptr, ptr, ptr, i32 }
%struct.uv__io_s = type { ptr, [2 x ptr], [2 x ptr], i32, i32, i32 }
%struct.uv__loop_internal_fields_s = type { i32, %struct.uv__loop_metrics_s }
%struct.uv__loop_metrics_s = type { i64, i64, %union.pthread_mutex_t }

; Function Attrs: nounwind uwtable
define dso_local i64 @uv_metrics_idle_time(ptr noundef %0) #0 {
  %2 = alloca ptr, align 8
  %3 = alloca ptr, align 8
  %4 = alloca i64, align 8
  %5 = alloca i64, align 8
  store ptr %0, ptr %2, align 8, !tbaa !52
  call void @llvm.lifetime.start.p0(i64 8, ptr %3) #13
  call void @llvm.lifetime.start.p0(i64 8, ptr %4) #13
  call void @llvm.lifetime.start.p0(i64 8, ptr %5) #13
  %6 = load ptr, ptr %2, align 8, !tbaa !52
  %7 = getelementptr inbounds nuw %struct.uv_loop_s, ptr %6, i32 0, i32 4
  %8 = load ptr, ptr %7, align 8, !tbaa !136
  %9 = getelementptr inbounds nuw %struct.uv__loop_internal_fields_s, ptr %8, i32 0, i32 1
  store ptr %9, ptr %3, align 8, !tbaa !140
  %10 = load ptr, ptr %3, align 8, !tbaa !140
  %11 = getelementptr inbounds nuw %struct.uv__loop_metrics_s, ptr %10, i32 0, i32 2
  call void @uv_mutex_lock(ptr noundef %11)
  %12 = load ptr, ptr %3, align 8, !tbaa !140
  %13 = getelementptr inbounds nuw %struct.uv__loop_metrics_s, ptr %12, i32 0, i32 1
  %14 = load i64, ptr %13, align 8, !tbaa !143
  store i64 %14, ptr %5, align 8, !tbaa !9
  %15 = load ptr, ptr %3, align 8, !tbaa !140
  %16 = getelementptr inbounds nuw %struct.uv__loop_metrics_s, ptr %15, i32 0, i32 0
  %17 = load i64, ptr %16, align 8, !tbaa !142
  store i64 %17, ptr %4, align 8, !tbaa !9
  %18 = load ptr, ptr %3, align 8, !tbaa !140
  %19 = getelementptr inbounds nuw %struct.uv__loop_metrics_s, ptr %18, i32 0, i32 2
  call void @uv_mutex_unlock(ptr noundef %19)
  %20 = load i64, ptr %4, align 8, !tbaa !9
  %21 = icmp ugt i64 %20, 0
  br i1 %21, label %22, label %28

22:                                               ; preds = %1
  %23 = call i64 @uv_hrtime()
  %24 = load i64, ptr %4, align 8, !tbaa !9
  %25 = sub i64 %23, %24
  %26 = load i64, ptr %5, align 8, !tbaa !9
  %27 = add i64 %26, %25
  store i64 %27, ptr %5, align 8, !tbaa !9
  br label %28

28:                                               ; preds = %22, %1
  %29 = load i64, ptr %5, align 8, !tbaa !9
  call void @llvm.lifetime.end.p0(i64 8, ptr %5) #13
  call void @llvm.lifetime.end.p0(i64 8, ptr %4) #13
  call void @llvm.lifetime.end.p0(i64 8, ptr %3) #13
  ret i64 %29
}