; Function Attrs: nounwind uwtable
define dso_local i64 @uv_metrics_idle_time(ptr noundef readonly captures(none) %0) local_unnamed_addr #0 {
  %2 = getelementptr inbounds nuw i8, ptr %0, i64 40
  %3 = load ptr, ptr %2, align 8, !tbaa !97
  %4 = getelementptr inbounds nuw i8, ptr %3, i64 8
  %5 = getelementptr inbounds nuw i8, ptr %3, i64 24
  tail call void @uv_mutex_lock(ptr noundef nonnull %5) #26
  %6 = getelementptr inbounds nuw i8, ptr %3, i64 16
  %7 = load i64, ptr %6, align 8, !tbaa !102
  %8 = load i64, ptr %4, align 8, !tbaa !101
  tail call void @uv_mutex_unlock(ptr noundef nonnull %5) #26
  %.not = icmp eq i64 %8, 0
  br i1 %.not, label %13, label %9

9:                                                ; preds = %1
  %10 = tail call i64 @uv_hrtime() #26
  %11 = sub i64 %7, %8
  %12 = add i64 %11, %10
  br label %13

13:                                               ; preds = %9, %1
  %.0 = phi i64 [ %12, %9 ], [ %7, %1 ]
  ret i64 %.0
}